; Function Attrs: mustprogress uwtable
define hidden void @_ZN12opencv_caffe19HDF5OutputParameter9MergeImplEPN6google8protobuf7MessageERKS3_(ptr noundef %0, ptr noundef nonnull readonly align 8 captures(none) dereferenceable(16) %1) #3 align 2 personality ptr @__gxx_personality_v0 {
  %3 = getelementptr inbounds nuw i8, ptr %1, i64 16
  %4 = load i32, ptr %3, align 8, !tbaa !71
  %5 = and i32 %4, 1
  %.not.i = icmp eq i32 %5, 0
  br i1 %.not.i, label %23, label %6

6:                                                ; preds = %2
  %7 = getelementptr inbounds nuw i8, ptr %1, i64 24
  %8 = load ptr, ptr %7, align 8, !tbaa !70
  %9 = ptrtoint ptr %8 to i64
  %10 = and i64 %9, -2
  %11 = inttoptr i64 %10 to ptr
  %12 = getelementptr inbounds nuw i8, ptr %0, i64 16
  %13 = load i32, ptr %12, align 4, !tbaa !71
  %14 = or i32 %13, 1
  store i32 %14, ptr %12, align 4, !tbaa !71
  %15 = getelementptr inbounds nuw i8, ptr %0, i64 24
  %16 = getelementptr inbounds nuw i8, ptr %0, i64 8
  %17 = load i64, ptr %16, align 8, !tbaa !8
  %18 = and i64 %17, 1
  %.not.i.i = icmp eq i64 %18, 0
  %19 = and i64 %17, -4
  %20 = inttoptr i64 %19 to ptr
  br i1 %.not.i.i, label %_ZNK6google8protobuf11MessageLite21GetArenaForAllocationEv.exit.i, label %21, !prof !20

21:                                               ; preds = %6
  %22 = load ptr, ptr %20, align 8, !tbaa !21
  br label %_ZNK6google8protobuf11MessageLite21GetArenaForAllocationEv.exit.i

_ZNK6google8protobuf11MessageLite21GetArenaForAllocationEv.exit.i: ; preds = %21, %6
  %.0.i.i.i = phi ptr [ %22, %21 ], [ %20, %6 ]
  tail call void @_ZN6google8protobuf8internal14ArenaStringPtr3SetENS2_12EmptyDefaultERKNSt7__cxx1112basic_stringIcSt11char_traitsIcESaIcEEEPNS0_5ArenaE(ptr noundef nonnull align 8 dereferenceable(8) %15, ptr noundef nonnull align 8 dereferenceable(32) %11, ptr noundef %.0.i.i.i)
  br label %23

23:                                               ; preds = %_ZNK6google8protobuf11MessageLite21GetArenaForAllocationEv.exit.i, %2
  %24 = getelementptr inbounds nuw i8, ptr %1, i64 8
  %25 = load i64, ptr %24, align 8, !tbaa !8
  %26 = and i64 %25, 1
  %.not4.i = icmp eq i64 %26, 0
  br i1 %.not4.i, label %_ZN12opencv_caffe19HDF5OutputParameter9MergeFromERKS0_.exit, label %_ZNK6google8protobuf8internal16InternalMetadata14unknown_fieldsINS0_15UnknownFieldSetEEERKT_PFS7_vE.exit.i

_ZNK6google8protobuf8internal16InternalMetadata14unknown_fieldsINS0_15UnknownFieldSetEEERKT_PFS7_vE.exit.i: ; preds = %23
  %27 = getelementptr inbounds nuw i8, ptr %0, i64 8
  %28 = and i64 %25, -4
  %29 = inttoptr i64 %28 to ptr
  %30 = getelementptr inbounds nuw i8, ptr %29, i64 8
  tail call void @_ZN6google8protobuf8internal16InternalMetadata11DoMergeFromINS0_15UnknownFieldSetEEEvRKT_(ptr noundef nonnull align 8 dereferenceable(8) %27, ptr noundef nonnull align 8 dereferenceable(24) %30)
  br label %_ZN12opencv_caffe19HDF5OutputParameter9MergeFromERKS0_.exit

_ZN12opencv_caffe19HDF5OutputParameter9MergeFromERKS0_.exit: ; preds = %23, %_ZNK6google8protobuf8internal16InternalMetadata14unknown_fieldsINS0_15UnknownFieldSetEEERKT_PFS7_vE.exit.i
  ret void
}